target datalayout = "e-m:e-p270:32:32-p271:32:32-p272:64:64-i64:64-i128:128-f80:128-n8:16:32:64-S128"
target triple = "x86_64-pc-linux-gnu"

%struct.H5S_pnt_list_t = type { [32 x i64], [32 x i64], ptr, ptr, i64, ptr }
%struct.H5S_pnt_node_t = type { ptr, [0 x i64] }

@H5S_init_g = external global i8, align 1
@H5_libterm_g = external global i8, align 1
@.str = private unnamed_addr constant [102 x i8] c"generated/home/dtcxzyw/WorkSpace/Projects/compilers/llvm-opt-benchmark/bench/hdf5/hdf5/src/H5Spoint.c\00", align 1
@H5E_DATASPACE_g = external global i64, align 8
@__func__.H5S__copy_pnt_list = private unnamed_addr constant [19 x i8] c"H5S__copy_pnt_list\00", align 1
@H5E_CANTALLOC_g = external global i64, align 8
@.str.17 = private unnamed_addr constant [31 x i8] c"can't allocate point list node\00", align 1
@.str.18 = private unnamed_addr constant [26 x i8] c"can't allocate point node\00", align 1
@H5_hcoords_t_arr_free_list = internal global { i8, [3 x i8], i32, i64, ptr, i32, [4 x i8], i64, i64, ptr } { i8 0, [3 x i8] zeroinitializer, i32 0, i64 0, ptr @.str.19, i32 33, [4 x i8] zeroinitializer, i64 8, i64 8, ptr null }, align 8
@H5_H5S_pnt_list_t_reg_free_list = internal global { i8, [3 x i8], i32, i32, [4 x i8], ptr, i64, ptr } { i8 0, [3 x i8] zeroinitializer, i32 0, i32 0, [4 x i8] zeroinitializer, ptr @.str.22, i64 544, ptr null }, align 8

; Function Attrs: nounwind uwtable
define internal void @H5S__free_pnt_list(ptr noundef %0) #0 {
  %2 = alloca ptr, align 8
  %3 = alloca ptr, align 8
  %4 = alloca ptr, align 8
  store ptr %0, ptr %2, align 8, !tbaa !93
  call void @llvm.lifetime.start.p0(i64 8, ptr %3) #7
  %5 = load i8, ptr @H5S_init_g, align 1, !tbaa !8, !range !12, !noundef !13
  %6 = trunc i8 %5 to i1
  br i1 %6, label %11, label %7

7:                                                ; preds = %1
  %8 = load i8, ptr @H5_libterm_g, align 1, !tbaa !8, !range !12, !noundef !13
  %9 = trunc i8 %8 to i1
  %10 = xor i1 %9, true
  br label %11

11:                                               ; preds = %7, %1
  %12 = phi i1 [ true, %1 ], [ %10, %7 ]
  %13 = xor i1 %12, true
  %14 = xor i1 %13, true
  %15 = zext i1 %14 to i32
  %16 = sext i32 %15 to i64
  %17 = call i64 @llvm.expect.i64(i64 %16, i64 1)
  %18 = icmp ne i64 %17, 0
  br i1 %18, label %19, label %36

19:                                               ; preds = %11
  %20 = load ptr, ptr %2, align 8, !tbaa !93
  %21 = getelementptr inbounds nuw %struct.H5S_pnt_list_t, ptr %20, i32 0, i32 2
  %22 = load ptr, ptr %21, align 8, !tbaa !35
  store ptr %22, ptr %3, align 8, !tbaa !38
  br label %23

23:                                               ; preds = %26, %19
  %24 = load ptr, ptr %3, align 8, !tbaa !38
  %25 = icmp ne ptr %24, null
  br i1 %25, label %26, label %33

26:                                               ; preds = %23
  call void @llvm.lifetime.start.p0(i64 8, ptr %4) #7
  %27 = load ptr, ptr %3, align 8, !tbaa !38
  store ptr %27, ptr %4, align 8, !tbaa !38
  %28 = load ptr, ptr %3, align 8, !tbaa !38
  %29 = getelementptr inbounds nuw %struct.H5S_pnt_node_t, ptr %28, i32 0, i32 0
  %30 = load ptr, ptr %29, align 8, !tbaa !38
  store ptr %30, ptr %3, align 8, !tbaa !38
  %31 = load ptr, ptr %4, align 8, !tbaa !38
  %32 = call ptr @H5FL_arr_free(ptr noundef @H5_hcoords_t_arr_free_list, ptr noundef %31)
  store ptr %32, ptr %4, align 8, !tbaa !38
  call void @llvm.lifetime.end.p0(i64 8, ptr %4) #7
  br label %23, !llvm.loop !96

33:                                               ; preds = %23
  %34 = load ptr, ptr %2, align 8, !tbaa !93
  %35 = call ptr @H5FL_reg_free(ptr noundef @H5_H5S_pnt_list_t_reg_free_list, ptr noundef %34)
  br label %36

36:                                               ; preds = %33, %11
  call void @llvm.lifetime.end.p0(i64 8, ptr %3) #7
  ret void
}

; Function Attrs: nounwind uwtable
define internal ptr @H5S__copy_pnt_list(ptr noundef %0, i32 noundef %1) #0 {
  %3 = alloca ptr, align 8
  %4 = alloca ptr, align 8
  %5 = alloca i32, align 4
  %6 = alloca ptr, align 8
  %7 = alloca ptr, align 8
  %8 = alloca ptr, align 8
  %9 = alloca ptr, align 8
  %10 = alloca i8, align 1
  %11 = alloca ptr, align 8
  %12 = alloca i32, align 4
  store ptr %0, ptr %4, align 8, !tbaa !93
  store i32 %1, ptr %5, align 4, !tbaa !10
  call void @llvm.lifetime.start.p0(i64 8, ptr %6) #7
  store ptr null, ptr %6, align 8, !tbaa !93
  call void @llvm.lifetime.start.p0(i64 8, ptr %7) #7
  call void @llvm.lifetime.start.p0(i64 8, ptr %8) #7
  call void @llvm.lifetime.start.p0(i64 8, ptr %9) #7
  store ptr null, ptr %9, align 8, !tbaa !93
  call void @llvm.lifetime.start.p0(i64 1, ptr %10) #7
  store i8 0, ptr %10, align 1, !tbaa !8
  %13 = load i8, ptr @H5S_init_g, align 1, !tbaa !8, !range !12, !noundef !13
  %14 = trunc i8 %13 to i1
  br i1 %14, label %19, label %15

15:                                               ; preds = %2
  %16 = load i8, ptr @H5_libterm_g, align 1, !tbaa !8, !range !12, !noundef !13
  %17 = trunc i8 %16 to i1
  %18 = xor i1 %17, true
  br label %19

19:                                               ; preds = %15, %2
  %20 = phi i1 [ true, %2 ], [ %18, %15 ]
  %21 = xor i1 %20, true
  %22 = xor i1 %21, true
  %23 = zext i1 %22 to i32
  %24 = sext i32 %23 to i64
  %25 = call i64 @llvm.expect.i64(i64 %24, i64 1)
  %26 = icmp ne i64 %25, 0
  br i1 %26, label %27, label %147

27:                                               ; preds = %19
  %28 = call noalias ptr @H5FL_reg_calloc(ptr noundef @H5_H5S_pnt_list_t_reg_free_list)
  store ptr %28, ptr %6, align 8, !tbaa !93
  %29 = icmp eq ptr null, %28
  br i1 %29, label %30, label %49

30:                                               ; preds = %27
  br label %31

31:                                               ; preds = %30
  br label %32

32:                                               ; preds = %31
  br label %33

33:                                               ; preds = %32
  %34 = load i64, ptr @H5E_DATASPACE_g, align 8, !tbaa !23
  %35 = load i64, ptr @H5E_CANTALLOC_g, align 8, !tbaa !23
  %36 = call i32 (ptr, ptr, i32, i64, i64, ptr, ...) @H5E_printf_stack(ptr noundef @.str, ptr noundef @__func__.H5S__copy_pnt_list, i32 noundef 807, i64 noundef %34, i64 noundef %35, ptr noundef @.str.17)
  br label %37

37:                                               ; preds = %33
  br label %38

38:                                               ; preds = %37
  store i8 1, ptr %10, align 1, !tbaa !8
  %39 = load i8, ptr %10, align 1, !tbaa !8, !range !12, !noundef !13
  %40 = trunc i8 %39 to i1
  %41 = zext i1 %40 to i8
  store i8 %41, ptr %10, align 1, !tbaa !8
  br label %42

42:                                               ; preds = %38
  br label %43

43:                                               ; preds = %42
  br label %44

44:                                               ; preds = %43
  store ptr null, ptr %9, align 8, !tbaa !93
  br label %138

45:                                               ; No predecessors!
  br label %46

46:                                               ; preds = %45
  br label %47

47:                                               ; preds = %46
  br label %48

48:                                               ; preds = %47
  br label %49

49:                                               ; preds = %48, %27
  %50 = load ptr, ptr %4, align 8, !tbaa !93
  %51 = getelementptr inbounds nuw %struct.H5S_pnt_list_t, ptr %50, i32 0, i32 2
  %52 = load ptr, ptr %51, align 8, !tbaa !35
  store ptr %52, ptr %7, align 8, !tbaa !38
  store ptr null, ptr %8, align 8, !tbaa !38
  br label %53

53:                                               ; preds = %110, %49
  %54 = load ptr, ptr %7, align 8, !tbaa !38
  %55 = icmp ne ptr %54, null
  br i1 %55, label %56, label %111

56:                                               ; preds = %53
  call void @llvm.lifetime.start.p0(i64 8, ptr %11) #7
  %57 = load i32, ptr %5, align 4, !tbaa !10
  %58 = add i32 %57, 1
  %59 = zext i32 %58 to i64
  %60 = call noalias ptr @H5FL_arr_malloc(ptr noundef @H5_hcoords_t_arr_free_list, i64 noundef %59)
  store ptr %60, ptr %11, align 8, !tbaa !38
  %61 = icmp eq ptr null, %60
  br i1 %61, label %62, label %81

62:                                               ; preds = %56
  br label %63

63:                                               ; preds = %62
  br label %64

64:                                               ; preds = %63
  br label %65

65:                                               ; preds = %64
  %66 = load i64, ptr @H5E_DATASPACE_g, align 8, !tbaa !23
  %67 = load i64, ptr @H5E_CANTALLOC_g, align 8, !tbaa !23
  %68 = call i32 (ptr, ptr, i32, i64, i64, ptr, ...) @H5E_printf_stack(ptr noundef @.str, ptr noundef @__func__.H5S__copy_pnt_list, i32 noundef 822, i64 noundef %66, i64 noundef %67, ptr noundef @.str.18)
  br label %69

69:                                               ; preds = %65
  br label %70

70:                                               ; preds = %69
  store i8 1, ptr %10, align 1, !tbaa !8
  %71 = load i8, ptr %10, align 1, !tbaa !8, !range !12, !noundef !13
  %72 = trunc i8 %71 to i1
  %73 = zext i1 %72 to i8
  store i8 %73, ptr %10, align 1, !tbaa !8
  br label %74

74:                                               ; preds = %70
  br label %75

75:                                               ; preds = %74
  br label %76

76:                                               ; preds = %75
  store ptr null, ptr %9, align 8, !tbaa !93
  store i32 10, ptr %12, align 4
  br label %108

77:                                               ; No predecessors!
  br label %78

78:                                               ; preds = %77
  br label %79

79:                                               ; preds = %78
  br label %80

80:                                               ; preds = %79
  br label %81

81:                                               ; preds = %80, %56
  %82 = load ptr, ptr %11, align 8, !tbaa !38
  %83 = getelementptr inbounds nuw %struct.H5S_pnt_node_t, ptr %82, i32 0, i32 0
  store ptr null, ptr %83, align 8, !tbaa !38
  %84 = load ptr, ptr %11, align 8, !tbaa !38
  %85 = getelementptr inbounds nuw %struct.H5S_pnt_node_t, ptr %84, i32 0, i32 1
  %86 = getelementptr inbounds [0 x i64], ptr %85, i64 0, i64 0
  %87 = load ptr, ptr %7, align 8, !tbaa !38
  %88 = getelementptr inbounds nuw %struct.H5S_pnt_node_t, ptr %87, i32 0, i32 1
  %89 = getelementptr inbounds [0 x i64], ptr %88, i64 0, i64 0
  %90 = load i32, ptr %5, align 4, !tbaa !10
  %91 = zext i32 %90 to i64
  %92 = mul i64 %91, 8
  call void @llvm.memcpy.p0.p0.i64(ptr align 8 %86, ptr align 8 %89, i64 %92, i1 false)
  %93 = load ptr, ptr %8, align 8, !tbaa !38
  %94 = icmp eq ptr null, %93
  br i1 %94, label %95, label %99

95:                                               ; preds = %81
  %96 = load ptr, ptr %11, align 8, !tbaa !38
  %97 = load ptr, ptr %6, align 8, !tbaa !93
  %98 = getelementptr inbounds nuw %struct.H5S_pnt_list_t, ptr %97, i32 0, i32 2
  store ptr %96, ptr %98, align 8, !tbaa !35
  store ptr %96, ptr %8, align 8, !tbaa !38
  br label %104

99:                                               ; preds = %81
  %100 = load ptr, ptr %11, align 8, !tbaa !38
  %101 = load ptr, ptr %8, align 8, !tbaa !38
  %102 = getelementptr inbounds nuw %struct.H5S_pnt_node_t, ptr %101, i32 0, i32 0
  store ptr %100, ptr %102, align 8, !tbaa !38
  %103 = load ptr, ptr %11, align 8, !tbaa !38
  store ptr %103, ptr %8, align 8, !tbaa !38
  br label %104

104:                                              ; preds = %99, %95
  %105 = load ptr, ptr %7, align 8, !tbaa !38
  %106 = getelementptr inbounds nuw %struct.H5S_pnt_node_t, ptr %105, i32 0, i32 0
  %107 = load ptr, ptr %106, align 8, !tbaa !38
  store ptr %107, ptr %7, align 8, !tbaa !38
  store i32 0, ptr %12, align 4
  br label %108

108:                                              ; preds = %76, %104
  call void @llvm.lifetime.end.p0(i64 8, ptr %11) #7
  %109 = load i32, ptr %12, align 4
  switch i32 %109, label %149 [
    i32 0, label %110
    i32 10, label %138
  ]

110:                                              ; preds = %108
  br label %53, !llvm.loop !95

111:                                              ; preds = %53
  %112 = load ptr, ptr %8, align 8, !tbaa !38
  %113 = load ptr, ptr %6, align 8, !tbaa !93
  %114 = getelementptr inbounds nuw %struct.H5S_pnt_list_t, ptr %113, i32 0, i32 3
  store ptr %112, ptr %114, align 8, !tbaa !88
  %115 = load ptr, ptr %6, align 8, !tbaa !93
  %116 = getelementptr inbounds nuw %struct.H5S_pnt_list_t, ptr %115, i32 0, i32 1
  %117 = getelementptr inbounds [32 x i64], ptr %116, i64 0, i64 0
  %118 = load ptr, ptr %4, align 8, !tbaa !93
  %119 = getelementptr inbounds nuw %struct.H5S_pnt_list_t, ptr %118, i32 0, i32 1
  %120 = getelementptr inbounds [32 x i64], ptr %119, i64 0, i64 0
  %121 = load i32, ptr %5, align 4, !tbaa !10
  %122 = zext i32 %121 to i64
  %123 = mul i64 %122, 8
  call void @llvm.memcpy.p0.p0.i64(ptr align 8 %117, ptr align 8 %120, i64 %123, i1 false)
  %124 = load ptr, ptr %6, align 8, !tbaa !93
  %125 = getelementptr inbounds nuw %struct.H5S_pnt_list_t, ptr %124, i32 0, i32 0
  %126 = getelementptr inbounds [32 x i64], ptr %125, i64 0, i64 0
  %127 = load ptr, ptr %4, align 8, !tbaa !93
  %128 = getelementptr inbounds nuw %struct.H5S_pnt_list_t, ptr %127, i32 0, i32 0
  %129 = getelementptr inbounds [32 x i64], ptr %128, i64 0, i64 0
  %130 = load i32, ptr %5, align 4, !tbaa !10
  %131 = zext i32 %130 to i64
  %132 = mul i64 %131, 8
  call void @llvm.memcpy.p0.p0.i64(ptr align 8 %126, ptr align 8 %129, i64 %132, i1 false)
  %133 = load ptr, ptr %6, align 8, !tbaa !93
  %134 = getelementptr inbounds nuw %struct.H5S_pnt_list_t, ptr %133, i32 0, i32 4
  store i64 0, ptr %134, align 8, !tbaa !78
  %135 = load ptr, ptr %6, align 8, !tbaa !93
  %136 = getelementptr inbounds nuw %struct.H5S_pnt_list_t, ptr %135, i32 0, i32 5
  store ptr null, ptr %136, align 8, !tbaa !79
  %137 = load ptr, ptr %6, align 8, !tbaa !93
  store ptr %137, ptr %9, align 8, !tbaa !93
  br label %138

138:                                              ; preds = %111, %108, %44
  %139 = load ptr, ptr %9, align 8, !tbaa !93
  %140 = icmp eq ptr null, %139
  br i1 %140, label %141, label %146

141:                                              ; preds = %138
  %142 = load ptr, ptr %6, align 8, !tbaa !93
  %143 = icmp ne ptr %142, null
  br i1 %143, label %144, label %146

144:                                              ; preds = %141
  %145 = load ptr, ptr %6, align 8, !tbaa !93
  call void @H5S__free_pnt_list(ptr noundef %145)
  br label %146

146:                                              ; preds = %144, %141, %138
  br label %147

147:                                              ; preds = %146, %19
  %148 = load ptr, ptr %9, align 8, !tbaa !93
  store ptr %148, ptr %3, align 8
  store i32 1, ptr %12, align 4
  br label %149

149:                                              ; preds = %147, %108
  call void @llvm.lifetime.end.p0(i64 1, ptr %10) #7
  call void @llvm.lifetime.end.p0(i64 8, ptr %9) #7
  call void @llvm.lifetime.end.p0(i64 8, ptr %8) #7
  call void @llvm.lifetime.end.p0(i64 8, ptr %7) #7
  call void @llvm.lifetime.end.p0(i64 8, ptr %6) #7
  %150 = load ptr, ptr %3, align 8
  ret ptr %150
}