; Function Attrs: nounwind uwtable
define internal fastcc ptr @H5S__copy_pnt_list(ptr noundef readonly captures(none) %0, i32 noundef %1) unnamed_addr #0 {
  %3 = load i8, ptr @H5S_init_g, align 1, !tbaa !3, !range !7, !noundef !8
  %4 = trunc nuw i8 %3 to i1
  %5 = load i8, ptr @H5_libterm_g, align 1, !range !7
  %6 = trunc nuw i8 %5 to i1
  %7 = xor i1 %6, true
  %8 = select i1 %4, i1 true, i1 %7
  br i1 %8, label %9, label %H5S__free_pnt_list.exit, !prof !9

9:                                                ; preds = %2
  %10 = tail call noalias ptr @H5FL_reg_calloc(ptr noundef nonnull @H5_H5S_pnt_list_t_reg_free_list) #15
  %11 = icmp eq ptr %10, null
  br i1 %11, label %12, label %16

12:                                               ; preds = %9
  %13 = load i64, ptr @H5E_DATASPACE_g, align 8, !tbaa !21
  %14 = load i64, ptr @H5E_CANTALLOC_g, align 8, !tbaa !21
  %15 = tail call i32 (ptr, ptr, i32, i64, i64, ptr, ...) @H5E_printf_stack(ptr noundef nonnull @.str, ptr noundef nonnull @__func__.H5S__copy_pnt_list, i32 noundef 807, i64 noundef %13, i64 noundef %14, ptr noundef nonnull @.str.17) #15
  br label %H5S__free_pnt_list.exit

16:                                               ; preds = %9
  %17 = getelementptr inbounds nuw i8, ptr %0, i64 512
  %.03850 = load ptr, ptr %17, align 8, !tbaa !25
  %.not51 = icmp eq ptr %.03850, null
  br i1 %.not51, label %.._crit_edge_crit_edge, label %.lr.ph

.._crit_edge_crit_edge:                           ; preds = %16
  %.pre = zext i32 %1 to i64
  %.pre55 = shl nuw nsw i64 %.pre, 3
  br label %._crit_edge

.lr.ph:                                           ; preds = %16
  %18 = add i32 %1, 1
  %19 = zext i32 %18 to i64
  %20 = zext i32 %1 to i64
  %21 = shl nuw nsw i64 %20, 3
  %22 = getelementptr inbounds nuw i8, ptr %10, i64 512
  br label %23

23:                                               ; preds = %.lr.ph, %32
  %.03853 = phi ptr [ %.03850, %.lr.ph ], [ %.038, %32 ]
  %.03552 = phi ptr [ null, %.lr.ph ], [ %24, %32 ]
  %24 = tail call noalias ptr @H5FL_arr_malloc(ptr noundef nonnull @H5_hcoords_t_arr_free_list, i64 noundef %19) #15
  %25 = icmp eq ptr %24, null
  br i1 %25, label %37, label %26

26:                                               ; preds = %23
  store ptr null, ptr %24, align 8, !tbaa !25
  %27 = getelementptr inbounds nuw i8, ptr %24, i64 8
  %28 = getelementptr inbounds nuw i8, ptr %.03853, i64 8
  tail call void @llvm.memcpy.p0.p0.i64(ptr nonnull align 8 %27, ptr nonnull align 8 %28, i64 %21, i1 false)
  %29 = icmp eq ptr %.03552, null
  br i1 %29, label %30, label %31

30:                                               ; preds = %26
  store ptr %24, ptr %22, align 8, !tbaa !22
  br label %32

31:                                               ; preds = %26
  store ptr %24, ptr %.03552, align 8, !tbaa !25
  br label %32

32:                                               ; preds = %30, %31
  %.038 = load ptr, ptr %.03853, align 8, !tbaa !25
  %.not = icmp eq ptr %.038, null
  br i1 %.not, label %._crit_edge, label %23

._crit_edge:                                      ; preds = %32, %.._crit_edge_crit_edge
  %.pre-phi56 = phi i64 [ %.pre55, %.._crit_edge_crit_edge ], [ %21, %32 ]
  %.035.lcssa = phi ptr [ null, %.._crit_edge_crit_edge ], [ %24, %32 ]
  %33 = getelementptr inbounds nuw i8, ptr %10, i64 520
  store ptr %.035.lcssa, ptr %33, align 8, !tbaa !79
  %34 = getelementptr inbounds nuw i8, ptr %10, i64 256
  %35 = getelementptr inbounds nuw i8, ptr %0, i64 256
  tail call void @llvm.memcpy.p0.p0.i64(ptr nonnull align 8 %34, ptr nonnull align 8 %35, i64 %.pre-phi56, i1 false)
  tail call void @llvm.memcpy.p0.p0.i64(ptr nonnull align 8 %10, ptr align 8 %0, i64 %.pre-phi56, i1 false)
  %36 = getelementptr inbounds nuw i8, ptr %10, i64 528
  tail call void @llvm.memset.p0.i64(ptr noundef nonnull align 8 dereferenceable(16) %36, i8 0, i64 16, i1 false)
  br label %H5S__free_pnt_list.exit

37:                                               ; preds = %23
  %38 = load i64, ptr @H5E_DATASPACE_g, align 8, !tbaa !21
  %39 = load i64, ptr @H5E_CANTALLOC_g, align 8, !tbaa !21
  %40 = tail call i32 (ptr, ptr, i32, i64, i64, ptr, ...) @H5E_printf_stack(ptr noundef nonnull @.str, ptr noundef nonnull @__func__.H5S__copy_pnt_list, i32 noundef 822, i64 noundef %38, i64 noundef %39, ptr noundef nonnull @.str.18) #15
  %41 = load i8, ptr @H5S_init_g, align 1, !tbaa !3, !range !7, !noundef !8
  %42 = trunc nuw i8 %41 to i1
  %43 = load i8, ptr @H5_libterm_g, align 1, !range !7
  %44 = trunc nuw i8 %43 to i1
  %45 = xor i1 %44, true
  %46 = select i1 %42, i1 true, i1 %45
  br i1 %46, label %47, label %H5S__free_pnt_list.exit, !prof !9

47:                                               ; preds = %37
  %48 = load ptr, ptr %22, align 8, !tbaa !22
  %.not6.i = icmp eq ptr %48, null
  br i1 %.not6.i, label %._crit_edge.i, label %.lr.ph.i

.lr.ph.i:                                         ; preds = %47, %.lr.ph.i
  %.07.i = phi ptr [ %49, %.lr.ph.i ], [ %48, %47 ]
  %49 = load ptr, ptr %.07.i, align 8, !tbaa !25
  %50 = tail call ptr @H5FL_arr_free(ptr noundef nonnull @H5_hcoords_t_arr_free_list, ptr noundef nonnull %.07.i) #15
  %.not.i = icmp eq ptr %49, null
  br i1 %.not.i, label %._crit_edge.i, label %.lr.ph.i, !llvm.loop !26

._crit_edge.i:                                    ; preds = %.lr.ph.i, %47
  %51 = tail call ptr @H5FL_reg_free(ptr noundef nonnull @H5_H5S_pnt_list_t_reg_free_list, ptr noundef nonnull %10) #15
  br label %H5S__free_pnt_list.exit

H5S__free_pnt_list.exit:                          ; preds = %12, %._crit_edge, %._crit_edge.i, %37, %2
  %.033 = phi ptr [ null, %2 ], [ null, %37 ], [ null, %._crit_edge.i ], [ %10, %._crit_edge ], [ null, %12 ]
  ret ptr %.033
}